target datalayout = "e-m:e-p270:32:32-p271:32:32-p272:64:64-i64:64-i128:128-f80:128-n8:16:32:64-S128"
target triple = "x86_64-pc-linux-gnu"

%"struct.duckdb_zstd::ZSTD_matchState_t" = type { %"struct.duckdb_zstd::ZSTD_window_t", i32, i32, i32, i32, ptr, [8 x i32], i64, i32, ptr, ptr, ptr, i32, i32, %"struct.duckdb_zstd::optState_t", ptr, %"struct.duckdb_zstd::ZSTD_compressionParameters", ptr, i32, i32 }
%"struct.duckdb_zstd::ZSTD_window_t" = type { ptr, ptr, ptr, i32, i32, i32 }
%"struct.duckdb_zstd::optState_t" = type { ptr, ptr, ptr, ptr, ptr, ptr, i32, i32, i32, i32, i32, i32, i32, i32, i32, ptr, i32 }
%"struct.duckdb_zstd::ZSTD_compressionParameters" = type { i32, i32, i32, i32, i32, i32, i32 }

; Function Attrs: alwaysinline mustprogress uwtable
define internal void @_ZN11duckdb_zstdL24ZSTD_updateTree_internalEPNS_17ZSTD_matchState_tEPKhS3_jNS_15ZSTD_dictMode_eE(ptr noundef %0, ptr noundef %1, ptr noundef %2, i32 noundef %3, i32 noundef %4) #1 {
  %6 = alloca ptr, align 8
  %7 = alloca ptr, align 8
  %8 = alloca ptr, align 8
  %9 = alloca i32, align 4
  %10 = alloca i32, align 4
  %11 = alloca ptr, align 8
  %12 = alloca i32, align 4
  %13 = alloca i32, align 4
  %14 = alloca i32, align 4
  store ptr %0, ptr %6, align 8, !tbaa !3
  store ptr %1, ptr %7, align 8, !tbaa !8
  store ptr %2, ptr %8, align 8, !tbaa !8
  store i32 %3, ptr %9, align 4, !tbaa !21
  store i32 %4, ptr %10, align 4, !tbaa !22
  call void @llvm.lifetime.start.p0(i64 8, ptr %11) #13
  %15 = load ptr, ptr %6, align 8, !tbaa !3
  %16 = getelementptr inbounds nuw %"struct.duckdb_zstd::ZSTD_matchState_t", ptr %15, i32 0, i32 0
  %17 = getelementptr inbounds nuw %"struct.duckdb_zstd::ZSTD_window_t", ptr %16, i32 0, i32 1
  %18 = load ptr, ptr %17, align 8, !tbaa !24
  store ptr %18, ptr %11, align 8, !tbaa !8
  call void @llvm.lifetime.start.p0(i64 4, ptr %12) #13
  %19 = load ptr, ptr %7, align 8, !tbaa !8
  %20 = load ptr, ptr %11, align 8, !tbaa !8
  %21 = ptrtoint ptr %19 to i64
  %22 = ptrtoint ptr %20 to i64
  %23 = sub i64 %21, %22
  %24 = trunc i64 %23 to i32
  store i32 %24, ptr %12, align 4, !tbaa !21
  call void @llvm.lifetime.start.p0(i64 4, ptr %13) #13
  %25 = load ptr, ptr %6, align 8, !tbaa !3
  %26 = getelementptr inbounds nuw %"struct.duckdb_zstd::ZSTD_matchState_t", ptr %25, i32 0, i32 2
  %27 = load i32, ptr %26, align 4, !tbaa !25
  store i32 %27, ptr %13, align 4, !tbaa !21
  br label %28

28:                                               ; preds = %5
  br label %29

29:                                               ; preds = %28
  br label %30

30:                                               ; preds = %29
  br label %31

31:                                               ; preds = %35, %30
  %32 = load i32, ptr %13, align 4, !tbaa !21
  %33 = load i32, ptr %12, align 4, !tbaa !21
  %34 = icmp ult i32 %32, %33
  br i1 %34, label %35, label %51

35:                                               ; preds = %31
  call void @llvm.lifetime.start.p0(i64 4, ptr %14) #13
  %36 = load ptr, ptr %6, align 8, !tbaa !3
  %37 = load ptr, ptr %11, align 8, !tbaa !8
  %38 = load i32, ptr %13, align 4, !tbaa !21
  %39 = zext i32 %38 to i64
  %40 = getelementptr inbounds nuw i8, ptr %37, i64 %39
  %41 = load ptr, ptr %8, align 8, !tbaa !8
  %42 = load i32, ptr %12, align 4, !tbaa !21
  %43 = load i32, ptr %9, align 4, !tbaa !21
  %44 = load i32, ptr %10, align 4, !tbaa !22
  %45 = icmp eq i32 %44, 1
  %46 = zext i1 %45 to i32
  %47 = call noundef i32 @_ZN11duckdb_zstdL14ZSTD_insertBt1EPKNS_17ZSTD_matchState_tEPKhS4_jji(ptr noundef %36, ptr noundef %40, ptr noundef %41, i32 noundef %42, i32 noundef %43, i32 noundef %46)
  store i32 %47, ptr %14, align 4, !tbaa !21
  %48 = load i32, ptr %14, align 4, !tbaa !21
  %49 = load i32, ptr %13, align 4, !tbaa !21
  %50 = add i32 %49, %48
  store i32 %50, ptr %13, align 4, !tbaa !21
  call void @llvm.lifetime.end.p0(i64 4, ptr %14) #13
  br label %31, !llvm.loop !26

51:                                               ; preds = %31
  %52 = load i32, ptr %12, align 4, !tbaa !21
  %53 = load ptr, ptr %6, align 8, !tbaa !3
  %54 = getelementptr inbounds nuw %"struct.duckdb_zstd::ZSTD_matchState_t", ptr %53, i32 0, i32 2
  store i32 %52, ptr %54, align 4, !tbaa !25
  call void @llvm.lifetime.end.p0(i64 4, ptr %13) #13
  call void @llvm.lifetime.end.p0(i64 4, ptr %12) #13
  call void @llvm.lifetime.end.p0(i64 8, ptr %11) #13
  ret void
}

; Function Attrs: mustprogress uwtable
define void @_ZN11duckdb_zstd15ZSTD_updateTreeEPNS_17ZSTD_matchState_tEPKhS3_(ptr noundef %0, ptr noundef %1, ptr noundef %2) #0 {
  %4 = alloca ptr, align 8
  %5 = alloca ptr, align 8
  %6 = alloca ptr, align 8
  store ptr %0, ptr %4, align 8, !tbaa !3
  store ptr %1, ptr %5, align 8, !tbaa !8
  store ptr %2, ptr %6, align 8, !tbaa !8
  %7 = load ptr, ptr %4, align 8, !tbaa !3
  %8 = load ptr, ptr %5, align 8, !tbaa !8
  %9 = load ptr, ptr %6, align 8, !tbaa !8
  %10 = load ptr, ptr %4, align 8, !tbaa !3
  %11 = getelementptr inbounds nuw %"struct.duckdb_zstd::ZSTD_matchState_t", ptr %10, i32 0, i32 16
  %12 = getelementptr inbounds nuw %"struct.duckdb_zstd::ZSTD_compressionParameters", ptr %11, i32 0, i32 4
  %13 = load i32, ptr %12, align 8, !tbaa !10
  call void @_ZN11duckdb_zstdL24ZSTD_updateTree_internalEPNS_17ZSTD_matchState_tEPKhS3_jNS_15ZSTD_dictMode_eE(ptr noundef %7, ptr noundef %8, ptr noundef %9, i32 noundef %13, i32 noundef 0)
  ret void
}